target datalayout = "e-m:e-p270:32:32-p271:32:32-p272:64:64-i64:64-i128:128-f80:128-n8:16:32:64-S128"
target triple = "x86_64-pc-linux-gnu"

%"struct.Luau::Location" = type { %"struct.Luau::Position", %"struct.Luau::Position" }
%"struct.Luau::Position" = type { i32, i32 }

@stderr = external global ptr, align 8
@.str.166 = private unnamed_addr constant [19 x i8] c"%s(%d,%d): %s: %s\0A\00", align 1
@.str.167 = private unnamed_addr constant [12 x i8] c"SyntaxError\00", align 1

; Function Attrs: mustprogress nounwind uwtable
define internal void @_ZL6reportPKcRKN4Luau8LocationES0_S0_(ptr noundef %0, ptr noundef nonnull align 4 dereferenceable(16) %1, ptr noundef %2, ptr noundef %3) #1 {
  %5 = alloca ptr, align 8
  %6 = alloca ptr, align 8
  %7 = alloca ptr, align 8
  %8 = alloca ptr, align 8
  store ptr %0, ptr %5, align 8
  store ptr %1, ptr %6, align 8
  store ptr %2, ptr %7, align 8
  store ptr %3, ptr %8, align 8
  %9 = load ptr, ptr @stderr, align 8
  %10 = load ptr, ptr %5, align 8
  %11 = load ptr, ptr %6, align 8
  %12 = getelementptr inbounds %"struct.Luau::Location", ptr %11, i32 0, i32 0
  %13 = getelementptr inbounds %"struct.Luau::Position", ptr %12, i32 0, i32 0
  %14 = load i32, ptr %13, align 4
  %15 = add i32 %14, 1
  %16 = load ptr, ptr %6, align 8
  %17 = getelementptr inbounds %"struct.Luau::Location", ptr %16, i32 0, i32 0
  %18 = getelementptr inbounds %"struct.Luau::Position", ptr %17, i32 0, i32 1
  %19 = load i32, ptr %18, align 4
  %20 = add i32 %19, 1
  %21 = load ptr, ptr %7, align 8
  %22 = load ptr, ptr %8, align 8
  %23 = call i32 (ptr, ptr, ...) @fprintf(ptr noundef %9, ptr noundef @.str.166, ptr noundef %10, i32 noundef %15, i32 noundef %20, ptr noundef %21, ptr noundef %22) #16
  ret void
}

; Function Attrs: mustprogress uwtable
define internal void @_ZL11reportErrorPKcRKN4Luau10ParseErrorE(ptr noundef %0, ptr noundef nonnull align 8 dereferenceable(56) %1) #3 {
  %3 = alloca ptr, align 8
  %4 = alloca ptr, align 8
  store ptr %0, ptr %3, align 8
  store ptr %1, ptr %4, align 8
  %5 = load ptr, ptr %3, align 8
  %6 = load ptr, ptr %4, align 8
  %7 = call noundef nonnull align 4 dereferenceable(16) ptr @_ZNK4Luau10ParseError11getLocationEv(ptr noundef nonnull align 8 dereferenceable(56) %6)
  %8 = load ptr, ptr %4, align 8
  %9 = load ptr, ptr %8, align 8
  %10 = getelementptr inbounds ptr, ptr %9, i64 2
  %11 = load ptr, ptr %10, align 8
  %12 = call noundef ptr %11(ptr noundef nonnull align 8 dereferenceable(56) %8) #16
  call void @_ZL6reportPKcRKN4Luau8LocationES0_S0_(ptr noundef %5, ptr noundef nonnull align 4 dereferenceable(16) %7, ptr noundef @.str.167, ptr noundef %12)
  ret void
}